	.file	"list_recur.c"
	.text
	.globl	new_list
	.type	new_list, @function
new_list:
.LFB6:
	.cfi_startproc
	pushq	%rbp
	.cfi_def_cfa_offset 16
	.cfi_offset 6, -16
	movq	%rsp, %rbp
	.cfi_def_cfa_register 6
	subq	$32, %rsp
	movq	%rdi, -24(%rbp)
	movl	$16, %edi
	call	malloc@PLT
	movq	%rax, -16(%rbp)
	movq	-16(%rbp), %rax
	movq	-24(%rbp), %rdx
	movq	%rdx, 8(%rax)
	movq	-16(%rbp), %rax
	movq	$0, (%rax)
	movl	$16, %edi
	call	malloc@PLT
	movq	%rax, -8(%rbp)
	movq	-8(%rbp), %rax
	movq	-16(%rbp), %rdx
	movq	%rdx, (%rax)
	movq	-8(%rbp), %rax
	movl	$1, 8(%rax)
	movq	-8(%rbp), %rax
	leave
	.cfi_def_cfa 7, 8
	ret
	.cfi_endproc
.LFE6:
	.size	new_list, .-new_list
	.globl	free_list
	.type	free_list, @function
free_list:
.LFB7:
	.cfi_startproc
	pushq	%rbp
	.cfi_def_cfa_offset 16
	.cfi_offset 6, -16
	movq	%rsp, %rbp
	.cfi_def_cfa_register 6
	subq	$32, %rsp
	movq	%rdi, -24(%rbp)
	jmp	.L4
.L5:
	movq	-24(%rbp), %rax
	movq	(%rax), %rax
	movq	%rax, -8(%rbp)
	movq	-24(%rbp), %rax
	movq	(%rax), %rax
	movq	(%rax), %rdx
	movq	-24(%rbp), %rax
	movq	%rdx, (%rax)
	movq	-8(%rbp), %rax
	movq	%rax, %rdi
	call	free@PLT
.L4:
	movq	-24(%rbp), %rax
	movq	(%rax), %rax
	testq	%rax, %rax
	jne	.L5
	movq	-24(%rbp), %rax
	movq	%rax, %rdi
	call	free@PLT
	nop
	leave
	.cfi_def_cfa 7, 8
	ret
	.cfi_endproc
.LFE7:
	.size	free_list, .-free_list
	.section	.rodata
.LC0:
	.string	"[%d] %ld\n"
	.text
	.globl	print_list
	.type	print_list, @function
print_list:
.LFB8:
	.cfi_startproc
	pushq	%rbp
	.cfi_def_cfa_offset 16
	.cfi_offset 6, -16
	movq	%rsp, %rbp
	.cfi_def_cfa_register 6
	subq	$32, %rsp
	movq	%rdi, -24(%rbp)
	movq	-24(%rbp), %rax
	movq	(%rax), %rax
	movq	%rax, -8(%rbp)
	movl	$0, -12(%rbp)
	jmp	.L7
.L8:
	movq	-8(%rbp), %rax
	movq	8(%rax), %rdx
	movl	-12(%rbp), %eax
	movl	%eax, %esi
	leaq	.LC0(%rip), %rdi
	movl	$0, %eax
	call	printf@PLT
	movq	-8(%rbp), %rax
	movq	(%rax), %rax
	movq	%rax, -8(%rbp)
	addl	$1, -12(%rbp)
.L7:
	cmpq	$0, -8(%rbp)
	jne	.L8
	nop
	nop
	leave
	.cfi_def_cfa 7, 8
	ret
	.cfi_endproc
.LFE8:
	.size	print_list, .-print_list
	.type	insert_, @function
insert_:
.LFB9:
	.cfi_startproc
	pushq	%rbp
	.cfi_def_cfa_offset 16
	.cfi_offset 6, -16
	movq	%rsp, %rbp
	.cfi_def_cfa_register 6
	subq	$32, %rsp
	movq	%rdi, -24(%rbp)
	movq	%rsi, -32(%rbp)
	movq	-24(%rbp), %rax
	movq	(%rax), %rax
	testq	%rax, %rax
	jne	.L10
	movl	$16, %edi
	call	malloc@PLT
	movq	%rax, -8(%rbp)
	movq	-8(%rbp), %rax
	movq	-32(%rbp), %rdx
	movq	%rdx, 8(%rax)
	movq	-8(%rbp), %rax
	movq	$0, (%rax)
	movq	-24(%rbp), %rax
	movq	-8(%rbp), %rdx
	movq	%rdx, (%rax)
	jmp	.L9
.L10:
	movq	-24(%rbp), %rax
	movq	(%rax), %rax
	movq	-32(%rbp), %rdx
	movq	%rdx, %rsi
	movq	%rax, %rdi
	call	insert_
.L9:
	leave
	.cfi_def_cfa 7, 8
	ret
	.cfi_endproc
.LFE9:
	.size	insert_, .-insert_
	.globl	insert
	.type	insert, @function
insert:
.LFB10:
	.cfi_startproc
	pushq	%rbp
	.cfi_def_cfa_offset 16
	.cfi_offset 6, -16
	movq	%rsp, %rbp
	.cfi_def_cfa_register 6
	subq	$16, %rsp
	movq	%rdi, -8(%rbp)
	movq	%rsi, -16(%rbp)
	movq	-8(%rbp), %rax
	movq	(%rax), %rax
	movq	-16(%rbp), %rdx
	movq	%rdx, %rsi
	movq	%rax, %rdi
	call	insert_
	movq	-8(%rbp), %rax
	movl	8(%rax), %eax
	leal	1(%rax), %edx
	movq	-8(%rbp), %rax
	movl	%edx, 8(%rax)
	nop
	leave
	.cfi_def_cfa 7, 8
	ret
	.cfi_endproc
.LFE10:
	.size	insert, .-insert
	.type	get_, @function
get_:
.LFB11:
	.cfi_startproc
	pushq	%rbp
	.cfi_def_cfa_offset 16
	.cfi_offset 6, -16
	movq	%rsp, %rbp
	.cfi_def_cfa_register 6
	subq	$16, %rsp
	movq	%rdi, -8(%rbp)
	movl	%esi, -12(%rbp)
	cmpl	$0, -12(%rbp)
	jne	.L14
	movq	-8(%rbp), %rax
	movq	8(%rax), %rax
	jmp	.L15
.L14:
	movl	-12(%rbp), %eax
	leal	-1(%rax), %edx
	movq	-8(%rbp), %rax
	movq	(%rax), %rax
	movl	%edx, %esi
	movq	%rax, %rdi
	call	get_
.L15:
	leave
	.cfi_def_cfa 7, 8
	ret
	.cfi_endproc
.LFE11:
	.size	get_, .-get_
	.section	.rodata
.LC1:
	.string	"index %d out of bounds\n"
	.text
	.globl	get
	.type	get, @function
get:
.LFB12:
	.cfi_startproc
	pushq	%rbp
	.cfi_def_cfa_offset 16
	.cfi_offset 6, -16
	movq	%rsp, %rbp
	.cfi_def_cfa_register 6
	subq	$16, %rsp
	movq	%rdi, -8(%rbp)
	movl	%esi, -12(%rbp)
	movq	-8(%rbp), %rax
	movl	8(%rax), %eax
	cmpl	%eax, -12(%rbp)
	jl	.L17
	movl	-12(%rbp), %eax
	movl	%eax, %esi
	leaq	.LC1(%rip), %rdi
	movl	$0, %eax
	call	printf@PLT
	movl	$1, %edi
	call	exit@PLT
.L17:
	movq	-8(%rbp), %rax
	movq	(%rax), %rax
	movl	-12(%rbp), %edx
	movl	%edx, %esi
	movq	%rax, %rdi
	call	get_
	leave
	.cfi_def_cfa 7, 8
	ret
	.cfi_endproc
.LFE12:
	.size	get, .-get
	.section	.rodata
.LC2:
	.string	"'%ld' not in list\n"
	.text
	.type	search_, @function
search_:
.LFB13:
	.cfi_startproc
	pushq	%rbp
	.cfi_def_cfa_offset 16
	.cfi_offset 6, -16
	movq	%rsp, %rbp
	.cfi_def_cfa_register 6
	subq	$16, %rsp
	movq	%rdi, -8(%rbp)
	movq	%rsi, -16(%rbp)
	cmpq	$0, -8(%rbp)
	jne	.L20
	movq	-16(%rbp), %rax
	movq	%rax, %rsi
	leaq	.LC2(%rip), %rdi
	movl	$0, %eax
	call	printf@PLT
	movl	$0, %eax
	jmp	.L21
.L20:
	movq	-8(%rbp), %rax
	movq	8(%rax), %rax
	cmpq	%rax, -16(%rbp)
	jne	.L22
	movq	-8(%rbp), %rax
	jmp	.L21
.L22:
	movq	-8(%rbp), %rax
	movq	(%rax), %rax
	movq	-16(%rbp), %rdx
	movq	%rdx, %rsi
	movq	%rax, %rdi
	call	search_
.L21:
	leave
	.cfi_def_cfa 7, 8
	ret
	.cfi_endproc
.LFE13:
	.size	search_, .-search_
	.globl	search
	.type	search, @function
search:
.LFB14:
	.cfi_startproc
	pushq	%rbp
	.cfi_def_cfa_offset 16
	.cfi_offset 6, -16
	movq	%rsp, %rbp
	.cfi_def_cfa_register 6
	subq	$16, %rsp
	movq	%rdi, -8(%rbp)
	movq	%rsi, -16(%rbp)
	movq	-8(%rbp), %rax
	movq	(%rax), %rax
	movq	-16(%rbp), %rdx
	movq	%rdx, %rsi
	movq	%rax, %rdi
	call	search_
	leave
	.cfi_def_cfa 7, 8
	ret
	.cfi_endproc
.LFE14:
	.size	search, .-search
	.ident	"GCC: (GNU) 10.2.0"
	.section	.note.GNU-stack,"",@progbits
